; Function Attrs: mustprogress nofree norecurse nosync nounwind willreturn memory(read, inaccessiblemem: none) uwtable
define hidden noundef zeroext i1 @_ZN13CodeHeapState22nmethod_access_is_safeEP7nmethod(ptr noundef readonly %0) local_unnamed_addr #0 align 2 {
  %2 = icmp eq ptr %0, null
  br i1 %2, label %.thread, label %3

3:                                                ; preds = %1
  %4 = getelementptr inbounds i8, ptr %0, i64 72
  %5 = load ptr, ptr %4, align 8
  %.not = icmp eq ptr %5, null
  br i1 %.not, label %.thread, label %6

6:                                                ; preds = %3
  %7 = getelementptr inbounds i8, ptr %5, i64 8
  %8 = load ptr, ptr %7, align 8
  %9 = getelementptr inbounds i8, ptr %8, i64 8
  %10 = load ptr, ptr %9, align 8
  %11 = getelementptr inbounds i8, ptr %8, i64 38
  %12 = load i16, ptr %11, align 2
  %13 = getelementptr inbounds i8, ptr %10, i64 72
  %14 = zext i16 %12 to i64
  %15 = getelementptr inbounds i64, ptr %13, i64 %14
  %16 = load ptr, ptr %15, align 8
  %17 = icmp ne ptr %16, null
  br label %.thread

.thread:                                          ; preds = %1, %6, %3
  %18 = phi i1 [ false, %3 ], [ %17, %6 ], [ false, %1 ]
  ret i1 %18
}